target datalayout = "e-m:e-p270:32:32-p271:32:32-p272:64:64-i64:64-i128:128-f80:128-n8:16:32:64-S128"
target triple = "x86_64-pc-linux-gnu"

%struct._lv_lru_t = type { ptr, i64, i64, i64, i64, i64, i32, ptr, ptr, ptr }
%struct._lv_lru_item_t = type { ptr, ptr, i64, i64, i64, ptr }

; Function Attrs: inlinehint nounwind uwtable
define internal void @lv_memzero(ptr noundef %0, i64 noundef %1) #3 {
  %3 = alloca ptr, align 8
  %4 = alloca i64, align 8
  store ptr %0, ptr %3, align 8, !tbaa !7
  store i64 %1, ptr %4, align 8, !tbaa !3
  %5 = load ptr, ptr %3, align 8, !tbaa !7
  %6 = load i64, ptr %4, align 8, !tbaa !3
  call void @lv_memset(ptr noundef %5, i8 noundef zeroext 0, i64 noundef %6)
  ret void
}

; Function Attrs: nounwind uwtable
define internal void @lv_lru_remove_item(ptr noundef %0, ptr noundef %1, ptr noundef %2, i32 noundef %3) #0 {
  %5 = alloca ptr, align 8
  %6 = alloca ptr, align 8
  %7 = alloca ptr, align 8
  %8 = alloca i32, align 4
  store ptr %0, ptr %5, align 8, !tbaa !7
  store ptr %1, ptr %6, align 8, !tbaa !7
  store ptr %2, ptr %7, align 8, !tbaa !7
  store i32 %3, ptr %8, align 4, !tbaa !19
  %9 = load ptr, ptr %6, align 8, !tbaa !7
  %10 = icmp ne ptr %9, null
  br i1 %10, label %11, label %17

11:                                               ; preds = %4
  %12 = load ptr, ptr %7, align 8, !tbaa !7
  %13 = getelementptr inbounds nuw %struct._lv_lru_item_t, ptr %12, i32 0, i32 5
  %14 = load ptr, ptr %13, align 8, !tbaa !20
  %15 = load ptr, ptr %6, align 8, !tbaa !7
  %16 = getelementptr inbounds nuw %struct._lv_lru_item_t, ptr %15, i32 0, i32 5
  store ptr %14, ptr %16, align 8, !tbaa !20
  br label %27

17:                                               ; preds = %4
  %18 = load ptr, ptr %7, align 8, !tbaa !7
  %19 = getelementptr inbounds nuw %struct._lv_lru_item_t, ptr %18, i32 0, i32 5
  %20 = load ptr, ptr %19, align 8, !tbaa !20
  %21 = load ptr, ptr %5, align 8, !tbaa !7
  %22 = getelementptr inbounds nuw %struct._lv_lru_t, ptr %21, i32 0, i32 0
  %23 = load ptr, ptr %22, align 8, !tbaa !18
  %24 = load i32, ptr %8, align 4, !tbaa !19
  %25 = zext i32 %24 to i64
  %26 = getelementptr inbounds nuw ptr, ptr %23, i64 %25
  store ptr %20, ptr %26, align 8, !tbaa !7
  br label %27

27:                                               ; preds = %17, %11
  %28 = load ptr, ptr %7, align 8, !tbaa !7
  %29 = getelementptr inbounds nuw %struct._lv_lru_item_t, ptr %28, i32 0, i32 2
  %30 = load i64, ptr %29, align 8, !tbaa !24
  %31 = load ptr, ptr %5, align 8, !tbaa !7
  %32 = getelementptr inbounds nuw %struct._lv_lru_t, ptr %31, i32 0, i32 2
  %33 = load i64, ptr %32, align 8, !tbaa !13
  %34 = add i64 %33, %30
  store i64 %34, ptr %32, align 8, !tbaa !13
  %35 = load ptr, ptr %5, align 8, !tbaa !7
  %36 = getelementptr inbounds nuw %struct._lv_lru_t, ptr %35, i32 0, i32 7
  %37 = load ptr, ptr %36, align 8, !tbaa !16
  %38 = load ptr, ptr %7, align 8, !tbaa !7
  %39 = getelementptr inbounds nuw %struct._lv_lru_item_t, ptr %38, i32 0, i32 0
  %40 = load ptr, ptr %39, align 8, !tbaa !22
  call void %37(ptr noundef %40)
  %41 = load ptr, ptr %5, align 8, !tbaa !7
  %42 = getelementptr inbounds nuw %struct._lv_lru_t, ptr %41, i32 0, i32 8
  %43 = load ptr, ptr %42, align 8, !tbaa !17
  %44 = load ptr, ptr %7, align 8, !tbaa !7
  %45 = getelementptr inbounds nuw %struct._lv_lru_item_t, ptr %44, i32 0, i32 1
  %46 = load ptr, ptr %45, align 8, !tbaa !23
  call void %43(ptr noundef %46)
  %47 = load ptr, ptr %7, align 8, !tbaa !7
  call void @lv_memzero(ptr noundef %47, i64 noundef 48)
  %48 = load ptr, ptr %5, align 8, !tbaa !7
  %49 = getelementptr inbounds nuw %struct._lv_lru_t, ptr %48, i32 0, i32 9
  %50 = load ptr, ptr %49, align 8, !tbaa !28
  %51 = load ptr, ptr %7, align 8, !tbaa !7
  %52 = getelementptr inbounds nuw %struct._lv_lru_item_t, ptr %51, i32 0, i32 5
  store ptr %50, ptr %52, align 8, !tbaa !20
  %53 = load ptr, ptr %7, align 8, !tbaa !7
  %54 = load ptr, ptr %5, align 8, !tbaa !7
  %55 = getelementptr inbounds nuw %struct._lv_lru_t, ptr %54, i32 0, i32 9
  store ptr %53, ptr %55, align 8, !tbaa !28
  ret void
}

; Function Attrs: nounwind uwtable
define internal i32 @lv_lru_cmp_keys(ptr noundef %0, ptr noundef %1, i32 noundef %2) #0 {
  %4 = alloca i32, align 4
  %5 = alloca ptr, align 8
  %6 = alloca ptr, align 8
  %7 = alloca i32, align 4
  store ptr %0, ptr %5, align 8, !tbaa !7
  store ptr %1, ptr %6, align 8, !tbaa !7
  store i32 %2, ptr %7, align 4, !tbaa !19
  %8 = load i32, ptr %7, align 4, !tbaa !19
  %9 = zext i32 %8 to i64
  %10 = load ptr, ptr %5, align 8, !tbaa !7
  %11 = getelementptr inbounds nuw %struct._lv_lru_item_t, ptr %10, i32 0, i32 3
  %12 = load i64, ptr %11, align 8, !tbaa !31
  %13 = icmp ne i64 %9, %12
  br i1 %13, label %14, label %15

14:                                               ; preds = %3
  store i32 1, ptr %4, align 4
  br label %23

15:                                               ; preds = %3
  %16 = load ptr, ptr %6, align 8, !tbaa !7
  %17 = load ptr, ptr %5, align 8, !tbaa !7
  %18 = getelementptr inbounds nuw %struct._lv_lru_item_t, ptr %17, i32 0, i32 1
  %19 = load ptr, ptr %18, align 8, !tbaa !23
  %20 = load i32, ptr %7, align 4, !tbaa !19
  %21 = zext i32 %20 to i64
  %22 = call i32 @lv_memcmp(ptr noundef %16, ptr noundef %19, i64 noundef %21)
  store i32 %22, ptr %4, align 4
  br label %23

23:                                               ; preds = %15, %14
  %24 = load i32, ptr %4, align 4
  ret i32 %24
}

; Function Attrs: nounwind uwtable
define internal i32 @lv_lru_hash(ptr noundef %0, ptr noundef %1, i32 noundef %2) #0 {
  %4 = alloca ptr, align 8
  %5 = alloca ptr, align 8
  %6 = alloca i32, align 4
  %7 = alloca i32, align 4
  %8 = alloca i32, align 4
  %9 = alloca i32, align 4
  %10 = alloca ptr, align 8
  %11 = alloca i32, align 4
  store ptr %0, ptr %4, align 8, !tbaa !7
  store ptr %1, ptr %5, align 8, !tbaa !7
  store i32 %2, ptr %6, align 4, !tbaa !19
  call void @llvm.lifetime.start.p0(i64 4, ptr %7) #4
  store i32 1540483477, ptr %7, align 4, !tbaa !19
  call void @llvm.lifetime.start.p0(i64 4, ptr %8) #4
  store i32 24, ptr %8, align 4, !tbaa !19
  call void @llvm.lifetime.start.p0(i64 4, ptr %9) #4
  %12 = load ptr, ptr %4, align 8, !tbaa !7
  %13 = getelementptr inbounds nuw %struct._lv_lru_t, ptr %12, i32 0, i32 6
  %14 = load i32, ptr %13, align 8, !tbaa !15
  %15 = load i32, ptr %6, align 4, !tbaa !19
  %16 = xor i32 %14, %15
  store i32 %16, ptr %9, align 4, !tbaa !19
  call void @llvm.lifetime.start.p0(i64 8, ptr %10) #4
  %17 = load ptr, ptr %5, align 8, !tbaa !7
  store ptr %17, ptr %10, align 8, !tbaa !7
  br label %18

18:                                               ; preds = %21, %3
  %19 = load i32, ptr %6, align 4, !tbaa !19
  %20 = icmp uge i32 %19, 4
  br i1 %20, label %21, label %45

21:                                               ; preds = %18
  call void @llvm.lifetime.start.p0(i64 4, ptr %11) #4
  %22 = load ptr, ptr %10, align 8, !tbaa !7
  %23 = load i32, ptr %22, align 4, !tbaa !19
  store i32 %23, ptr %11, align 4, !tbaa !19
  %24 = load i32, ptr %7, align 4, !tbaa !19
  %25 = load i32, ptr %11, align 4, !tbaa !19
  %26 = mul i32 %25, %24
  store i32 %26, ptr %11, align 4, !tbaa !19
  %27 = load i32, ptr %11, align 4, !tbaa !19
  %28 = load i32, ptr %8, align 4, !tbaa !19
  %29 = lshr i32 %27, %28
  %30 = load i32, ptr %11, align 4, !tbaa !19
  %31 = xor i32 %30, %29
  store i32 %31, ptr %11, align 4, !tbaa !19
  %32 = load i32, ptr %7, align 4, !tbaa !19
  %33 = load i32, ptr %11, align 4, !tbaa !19
  %34 = mul i32 %33, %32
  store i32 %34, ptr %11, align 4, !tbaa !19
  %35 = load i32, ptr %7, align 4, !tbaa !19
  %36 = load i32, ptr %9, align 4, !tbaa !19
  %37 = mul i32 %36, %35
  store i32 %37, ptr %9, align 4, !tbaa !19
  %38 = load i32, ptr %11, align 4, !tbaa !19
  %39 = load i32, ptr %9, align 4, !tbaa !19
  %40 = xor i32 %39, %38
  store i32 %40, ptr %9, align 4, !tbaa !19
  %41 = load ptr, ptr %10, align 8, !tbaa !7
  %42 = getelementptr inbounds i8, ptr %41, i64 4
  store ptr %42, ptr %10, align 8, !tbaa !7
  %43 = load i32, ptr %6, align 4, !tbaa !19
  %44 = sub i32 %43, 4
  store i32 %44, ptr %6, align 4, !tbaa !19
  call void @llvm.lifetime.end.p0(i64 4, ptr %11) #4
  br label %18, !llvm.loop !35

45:                                               ; preds = %18
  %46 = load i32, ptr %6, align 4, !tbaa !19
  %47 = icmp uge i32 %46, 3
  br i1 %47, label %48, label %56

48:                                               ; preds = %45
  %49 = load ptr, ptr %10, align 8, !tbaa !7
  %50 = getelementptr inbounds i8, ptr %49, i64 2
  %51 = load i8, ptr %50, align 1, !tbaa !36
  %52 = sext i8 %51 to i32
  %53 = shl i32 %52, 16
  %54 = load i32, ptr %9, align 4, !tbaa !19
  %55 = xor i32 %54, %53
  store i32 %55, ptr %9, align 4, !tbaa !19
  br label %56

56:                                               ; preds = %48, %45
  %57 = load i32, ptr %6, align 4, !tbaa !19
  %58 = icmp uge i32 %57, 2
  br i1 %58, label %59, label %67

59:                                               ; preds = %56
  %60 = load ptr, ptr %10, align 8, !tbaa !7
  %61 = getelementptr inbounds i8, ptr %60, i64 1
  %62 = load i8, ptr %61, align 1, !tbaa !36
  %63 = sext i8 %62 to i32
  %64 = shl i32 %63, 8
  %65 = load i32, ptr %9, align 4, !tbaa !19
  %66 = xor i32 %65, %64
  store i32 %66, ptr %9, align 4, !tbaa !19
  br label %67

67:                                               ; preds = %59, %56
  %68 = load i32, ptr %6, align 4, !tbaa !19
  %69 = icmp uge i32 %68, 1
  br i1 %69, label %70, label %80

70:                                               ; preds = %67
  %71 = load ptr, ptr %10, align 8, !tbaa !7
  %72 = getelementptr inbounds i8, ptr %71, i64 0
  %73 = load i8, ptr %72, align 1, !tbaa !36
  %74 = sext i8 %73 to i32
  %75 = load i32, ptr %9, align 4, !tbaa !19
  %76 = xor i32 %75, %74
  store i32 %76, ptr %9, align 4, !tbaa !19
  %77 = load i32, ptr %7, align 4, !tbaa !19
  %78 = load i32, ptr %9, align 4, !tbaa !19
  %79 = mul i32 %78, %77
  store i32 %79, ptr %9, align 4, !tbaa !19
  br label %80

80:                                               ; preds = %70, %67
  %81 = load i32, ptr %9, align 4, !tbaa !19
  %82 = lshr i32 %81, 13
  %83 = load i32, ptr %9, align 4, !tbaa !19
  %84 = xor i32 %83, %82
  store i32 %84, ptr %9, align 4, !tbaa !19
  %85 = load i32, ptr %7, align 4, !tbaa !19
  %86 = load i32, ptr %9, align 4, !tbaa !19
  %87 = mul i32 %86, %85
  store i32 %87, ptr %9, align 4, !tbaa !19
  %88 = load i32, ptr %9, align 4, !tbaa !19
  %89 = lshr i32 %88, 15
  %90 = load i32, ptr %9, align 4, !tbaa !19
  %91 = xor i32 %90, %89
  store i32 %91, ptr %9, align 4, !tbaa !19
  %92 = load i32, ptr %9, align 4, !tbaa !19
  %93 = zext i32 %92 to i64
  %94 = load ptr, ptr %4, align 8, !tbaa !7
  %95 = getelementptr inbounds nuw %struct._lv_lru_t, ptr %94, i32 0, i32 5
  %96 = load i64, ptr %95, align 8, !tbaa !9
  %97 = urem i64 %93, %96
  %98 = trunc i64 %97 to i32
  call void @llvm.lifetime.end.p0(i64 8, ptr %10) #4
  call void @llvm.lifetime.end.p0(i64 4, ptr %9) #4
  call void @llvm.lifetime.end.p0(i64 4, ptr %8) #4
  call void @llvm.lifetime.end.p0(i64 4, ptr %7) #4
  ret i32 %98
}

; Function Attrs: nounwind uwtable
define i32 @lv_lru_remove(ptr noundef %0, ptr noundef %1, i64 noundef %2) #0 {
  %4 = alloca i32, align 4
  %5 = alloca ptr, align 8
  %6 = alloca ptr, align 8
  %7 = alloca i64, align 8
  %8 = alloca ptr, align 8
  %9 = alloca ptr, align 8
  %10 = alloca i32, align 4
  store ptr %0, ptr %5, align 8, !tbaa !7
  store ptr %1, ptr %6, align 8, !tbaa !7
  store i64 %2, ptr %7, align 8, !tbaa !3
  %11 = load ptr, ptr %5, align 8, !tbaa !7
  %12 = icmp ne ptr %11, null
  br i1 %12, label %14, label %13

13:                                               ; preds = %3
  store i32 1, ptr %4, align 4
  br label %57

14:                                               ; preds = %3
  %15 = load ptr, ptr %6, align 8, !tbaa !7
  %16 = icmp ne ptr %15, null
  br i1 %16, label %18, label %17

17:                                               ; preds = %14
  store i32 2, ptr %4, align 4
  br label %57

18:                                               ; preds = %14
  call void @llvm.lifetime.start.p0(i64 8, ptr %8) #4
  store ptr null, ptr %8, align 8, !tbaa !7
  call void @llvm.lifetime.start.p0(i64 8, ptr %9) #4
  store ptr null, ptr %9, align 8, !tbaa !7
  call void @llvm.lifetime.start.p0(i64 4, ptr %10) #4
  %19 = load ptr, ptr %5, align 8, !tbaa !7
  %20 = load ptr, ptr %6, align 8, !tbaa !7
  %21 = load i64, ptr %7, align 8, !tbaa !3
  %22 = trunc i64 %21 to i32
  %23 = call i32 @lv_lru_hash(ptr noundef %19, ptr noundef %20, i32 noundef %22)
  store i32 %23, ptr %10, align 4, !tbaa !19
  %24 = load ptr, ptr %5, align 8, !tbaa !7
  %25 = getelementptr inbounds nuw %struct._lv_lru_t, ptr %24, i32 0, i32 0
  %26 = load ptr, ptr %25, align 8, !tbaa !18
  %27 = load i32, ptr %10, align 4, !tbaa !19
  %28 = zext i32 %27 to i64
  %29 = getelementptr inbounds nuw ptr, ptr %26, i64 %28
  %30 = load ptr, ptr %29, align 8, !tbaa !7
  store ptr %30, ptr %8, align 8, !tbaa !7
  br label %31

31:                                               ; preds = %43, %18
  %32 = load ptr, ptr %8, align 8, !tbaa !7
  %33 = icmp ne ptr %32, null
  br i1 %33, label %34, label %41

34:                                               ; preds = %31
  %35 = load ptr, ptr %8, align 8, !tbaa !7
  %36 = load ptr, ptr %6, align 8, !tbaa !7
  %37 = load i64, ptr %7, align 8, !tbaa !3
  %38 = trunc i64 %37 to i32
  %39 = call i32 @lv_lru_cmp_keys(ptr noundef %35, ptr noundef %36, i32 noundef %38)
  %40 = icmp ne i32 %39, 0
  br label %41

41:                                               ; preds = %34, %31
  %42 = phi i1 [ false, %31 ], [ %40, %34 ]
  br i1 %42, label %43, label %48

43:                                               ; preds = %41
  %44 = load ptr, ptr %8, align 8, !tbaa !7
  store ptr %44, ptr %9, align 8, !tbaa !7
  %45 = load ptr, ptr %8, align 8, !tbaa !7
  %46 = getelementptr inbounds nuw %struct._lv_lru_item_t, ptr %45, i32 0, i32 5
  %47 = load ptr, ptr %46, align 8, !tbaa !20
  store ptr %47, ptr %8, align 8, !tbaa !7
  br label %31, !llvm.loop !40

48:                                               ; preds = %41
  %49 = load ptr, ptr %8, align 8, !tbaa !7
  %50 = icmp ne ptr %49, null
  br i1 %50, label %51, label %56

51:                                               ; preds = %48
  %52 = load ptr, ptr %5, align 8, !tbaa !7
  %53 = load ptr, ptr %9, align 8, !tbaa !7
  %54 = load ptr, ptr %8, align 8, !tbaa !7
  %55 = load i32, ptr %10, align 4, !tbaa !19
  call void @lv_lru_remove_item(ptr noundef %52, ptr noundef %53, ptr noundef %54, i32 noundef %55)
  br label %56

56:                                               ; preds = %51, %48
  store i32 0, ptr %4, align 4
  call void @llvm.lifetime.end.p0(i64 4, ptr %10) #4
  call void @llvm.lifetime.end.p0(i64 8, ptr %9) #4
  call void @llvm.lifetime.end.p0(i64 8, ptr %8) #4
  br label %57

57:                                               ; preds = %56, %17, %13
  %58 = load i32, ptr %4, align 4
  ret i32 %58
}