; Function Attrs: nounwind uwtable
define range(i32 0, 3) i32 @lv_lru_remove(ptr noundef %0, ptr noundef %1, i64 noundef %2) local_unnamed_addr #0 {
  %.not = icmp eq ptr %0, null
  br i1 %.not, label %.critedge25, label %4

4:                                                ; preds = %3
  %.not22 = icmp eq ptr %1, null
  br i1 %.not22, label %.critedge25, label %5

5:                                                ; preds = %4
  %6 = trunc i64 %2 to i32
  %7 = getelementptr inbounds nuw i8, ptr %0, i64 48
  %8 = load i32, ptr %7, align 8, !tbaa !13
  %9 = xor i32 %8, %6
  %10 = icmp ugt i32 %6, 3
  br i1 %10, label %.lr.ph.i, label %._crit_edge.i

.lr.ph.i:                                         ; preds = %5, %.lr.ph.i
  %.046.i = phi i32 [ %19, %.lr.ph.i ], [ %6, %5 ]
  %.03645.i = phi ptr [ %18, %.lr.ph.i ], [ %1, %5 ]
  %.03744.i = phi i32 [ %17, %.lr.ph.i ], [ %9, %5 ]
  %11 = load i32, ptr %.03645.i, align 4, !tbaa !28
  %12 = mul i32 %11, 1540483477
  %13 = lshr i32 %12, 24
  %14 = xor i32 %13, %12
  %15 = mul i32 %14, 1540483477
  %16 = mul i32 %.03744.i, 1540483477
  %17 = xor i32 %15, %16
  %18 = getelementptr inbounds i8, ptr %.03645.i, i64 4
  %19 = add i32 %.046.i, -4
  %20 = icmp ugt i32 %19, 3
  br i1 %20, label %.lr.ph.i, label %._crit_edge.i, !llvm.loop !29

._crit_edge.i:                                    ; preds = %.lr.ph.i, %5
  %.037.lcssa.i = phi i32 [ %9, %5 ], [ %17, %.lr.ph.i ]
  %.036.lcssa.i = phi ptr [ %1, %5 ], [ %18, %.lr.ph.i ]
  %.0.lcssa.i = phi i32 [ %6, %5 ], [ %19, %.lr.ph.i ]
  %21 = icmp eq i32 %.0.lcssa.i, 3
  br i1 %21, label %.thread.i, label %27

.thread.i:                                        ; preds = %._crit_edge.i
  %22 = getelementptr inbounds i8, ptr %.036.lcssa.i, i64 2
  %23 = load i8, ptr %22, align 1, !tbaa !30
  %24 = sext i8 %23 to i32
  %25 = shl nsw i32 %24, 16
  %26 = xor i32 %25, %.037.lcssa.i
  br label %.thread40.i

27:                                               ; preds = %._crit_edge.i
  %28 = icmp samesign ugt i32 %.0.lcssa.i, 1
  br i1 %28, label %.thread40.i, label %34

.thread40.i:                                      ; preds = %27, %.thread.i
  %.139.i = phi i32 [ %26, %.thread.i ], [ %.037.lcssa.i, %27 ]
  %29 = getelementptr inbounds i8, ptr %.036.lcssa.i, i64 1
  %30 = load i8, ptr %29, align 1, !tbaa !30
  %31 = sext i8 %30 to i32
  %32 = shl nsw i32 %31, 8
  %33 = xor i32 %32, %.139.i
  br label %35

34:                                               ; preds = %27
  %.not.i = icmp eq i32 %.0.lcssa.i, 0
  br i1 %.not.i, label %lv_lru_hash.exit, label %35

35:                                               ; preds = %34, %.thread40.i
  %.243.i = phi i32 [ %33, %.thread40.i ], [ %.037.lcssa.i, %34 ]
  %36 = load i8, ptr %.036.lcssa.i, align 1, !tbaa !30
  %37 = sext i8 %36 to i32
  %38 = xor i32 %.243.i, %37
  %39 = mul i32 %38, 1540483477
  br label %lv_lru_hash.exit

lv_lru_hash.exit:                                 ; preds = %34, %35
  %.3.i = phi i32 [ %39, %35 ], [ %.037.lcssa.i, %34 ]
  %40 = lshr i32 %.3.i, 13
  %41 = xor i32 %40, %.3.i
  %42 = mul i32 %41, 1540483477
  %43 = lshr i32 %42, 15
  %44 = xor i32 %43, %42
  %45 = zext i32 %44 to i64
  %46 = getelementptr inbounds nuw i8, ptr %0, i64 40
  %47 = load i64, ptr %46, align 8, !tbaa !3
  %48 = urem i64 %45, %47
  %49 = load ptr, ptr %0, align 8, !tbaa !16
  %50 = getelementptr inbounds nuw ptr, ptr %49, i64 %48
  %.01934 = load ptr, ptr %50, align 8, !tbaa !17
  %.not2335 = icmp eq ptr %.01934, null
  br i1 %.not2335, label %.critedge25, label %.lr.ph

.lr.ph:                                           ; preds = %lv_lru_hash.exit
  %51 = and i64 %2, 4294967295
  br label %52

52:                                               ; preds = %.lr.ph, %lv_lru_cmp_keys.exit.thread
  %.01937 = phi ptr [ %.01934, %.lr.ph ], [ %.019, %lv_lru_cmp_keys.exit.thread ]
  %.01836 = phi ptr [ null, %.lr.ph ], [ %.01937, %lv_lru_cmp_keys.exit.thread ]
  %53 = getelementptr inbounds nuw i8, ptr %.01937, i64 24
  %54 = load i64, ptr %53, align 8, !tbaa !31
  %.not.i26 = icmp eq i64 %54, %51
  br i1 %.not.i26, label %lv_lru_cmp_keys.exit, label %lv_lru_cmp_keys.exit.thread

lv_lru_cmp_keys.exit:                             ; preds = %52
  %55 = getelementptr inbounds nuw i8, ptr %.01937, i64 8
  %56 = load ptr, ptr %55, align 8, !tbaa !21
  %57 = tail call i32 @lv_memcmp(ptr noundef nonnull %1, ptr noundef %56, i64 noundef %51) #2
  %.not24 = icmp eq i32 %57, 0
  br i1 %.not24, label %.critedge, label %lv_lru_cmp_keys.exit.thread

lv_lru_cmp_keys.exit.thread:                      ; preds = %52, %lv_lru_cmp_keys.exit
  %58 = getelementptr inbounds nuw i8, ptr %.01937, i64 40
  %.019 = load ptr, ptr %58, align 8, !tbaa !17
  %.not23 = icmp eq ptr %.019, null
  br i1 %.not23, label %.critedge25, label %52, !llvm.loop !40

.critedge:                                        ; preds = %lv_lru_cmp_keys.exit
  %59 = getelementptr inbounds nuw i8, ptr %.01937, i64 8
  %.not.i27 = icmp eq ptr %.01836, null
  %60 = getelementptr inbounds nuw i8, ptr %.01937, i64 40
  %61 = load ptr, ptr %60, align 8, !tbaa !18
  br i1 %.not.i27, label %64, label %62

62:                                               ; preds = %.critedge
  %63 = getelementptr inbounds nuw i8, ptr %.01836, i64 40
  store ptr %61, ptr %63, align 8, !tbaa !18
  br label %lv_lru_remove_item.exit

64:                                               ; preds = %.critedge
  %65 = load ptr, ptr %0, align 8, !tbaa !16
  %66 = getelementptr inbounds nuw ptr, ptr %65, i64 %48
  store ptr %61, ptr %66, align 8, !tbaa !17
  br label %lv_lru_remove_item.exit

lv_lru_remove_item.exit:                          ; preds = %62, %64
  %67 = getelementptr inbounds nuw i8, ptr %.01937, i64 16
  %68 = load i64, ptr %67, align 8, !tbaa !22
  %69 = getelementptr inbounds nuw i8, ptr %0, i64 16
  %70 = load i64, ptr %69, align 8, !tbaa !11
  %71 = add i64 %70, %68
  store i64 %71, ptr %69, align 8, !tbaa !11
  %72 = getelementptr inbounds nuw i8, ptr %0, i64 56
  %73 = load ptr, ptr %72, align 8, !tbaa !14
  %74 = load ptr, ptr %.01937, align 8, !tbaa !20
  tail call void %73(ptr noundef %74) #2
  %75 = getelementptr inbounds nuw i8, ptr %0, i64 64
  %76 = load ptr, ptr %75, align 8, !tbaa !15
  %77 = load ptr, ptr %59, align 8, !tbaa !21
  tail call void %76(ptr noundef %77) #2
  tail call void @lv_memset(ptr noundef nonnull %.01937, i8 noundef zeroext 0, i64 noundef 48) #2
  %78 = getelementptr inbounds nuw i8, ptr %0, i64 72
  %79 = load ptr, ptr %78, align 8, !tbaa !26
  store ptr %79, ptr %60, align 8, !tbaa !18
  store ptr %.01937, ptr %78, align 8, !tbaa !26
  br label %.critedge25

.critedge25:                                      ; preds = %lv_lru_cmp_keys.exit.thread, %lv_lru_hash.exit, %lv_lru_remove_item.exit, %4, %3
  %.0 = phi i32 [ 1, %3 ], [ 2, %4 ], [ 0, %lv_lru_remove_item.exit ], [ 0, %lv_lru_hash.exit ], [ 0, %lv_lru_cmp_keys.exit.thread ]
  ret i32 %.0
}